; Function Attrs: mustprogress nofree norecurse nosync nounwind willreturn memory(read, inaccessiblemem: none) uwtable
define hidden noundef i32 @_ZNK5ceres8internal13ResidualBlock28NumScratchDoublesForEvaluateEv(ptr noundef nonnull readonly align 8 captures(none) dereferenceable(28) %0) local_unnamed_addr #9 align 2 {
  %2 = load ptr, ptr %0, align 8, !tbaa !3
  %3 = getelementptr inbounds nuw i8, ptr %2, i64 8
  %4 = getelementptr inbounds nuw i8, ptr %2, i64 16
  %5 = load ptr, ptr %4, align 8, !tbaa !19
  %6 = load ptr, ptr %3, align 8, !tbaa !22
  %7 = ptrtoint ptr %5 to i64
  %8 = ptrtoint ptr %6 to i64
  %9 = sub i64 %7, %8
  %10 = lshr exact i64 %9, 2
  %11 = trunc i64 %10 to i32
  %12 = icmp sgt i32 %11, 0
  br i1 %12, label %.lr.ph, label %._crit_edge

.lr.ph:                                           ; preds = %1
  %13 = getelementptr inbounds nuw i8, ptr %0, i64 16
  %14 = load ptr, ptr %13, align 8, !tbaa !23
  %wide.trip.count = and i64 %10, 2147483647
  br label %18

._crit_edge:                                      ; preds = %27, %1
  %.0.lcssa = phi i32 [ 1, %1 ], [ %.1, %27 ]
  %15 = getelementptr inbounds nuw i8, ptr %2, i64 32
  %16 = load i32, ptr %15, align 8, !tbaa !25
  %17 = mul nsw i32 %16, %.0.lcssa
  ret i32 %17

18:                                               ; preds = %.lr.ph, %27
  %indvars.iv = phi i64 [ 0, %.lr.ph ], [ %indvars.iv.next, %27 ]
  %.011 = phi i32 [ 1, %.lr.ph ], [ %.1, %27 ]
  %19 = getelementptr inbounds nuw ptr, ptr %14, i64 %indvars.iv
  %20 = load ptr, ptr %19, align 8, !tbaa !40
  %21 = getelementptr inbounds nuw i8, ptr %20, i64 32
  %22 = load ptr, ptr %21, align 8, !tbaa !60
  %.not = icmp eq ptr %22, null
  br i1 %.not, label %27, label %23

23:                                               ; preds = %18
  %24 = getelementptr inbounds nuw i8, ptr %20, i64 8
  %25 = load i32, ptr %24, align 8, !tbaa !68
  %26 = add nsw i32 %25, %.011
  br label %27

27:                                               ; preds = %23, %18
  %.1 = phi i32 [ %26, %23 ], [ %.011, %18 ]
  %indvars.iv.next = add nuw nsw i64 %indvars.iv, 1
  %exitcond.not = icmp eq i64 %indvars.iv.next, %wide.trip.count
  br i1 %exitcond.not, label %._crit_edge, label %18, !llvm.loop !86
}